target datalayout = "e-m:e-p270:32:32-p271:32:32-p272:64:64-i64:64-i128:128-f80:128-n8:16:32:64-S128"
target triple = "x86_64-pc-linux-gnu"

%struct.anon = type { ptr, i32 }

@.str.2 = private unnamed_addr constant [13 x i8] c"color.advice\00", align 1
@advice_use_color = internal global i32 -1, align 4
@.str.3 = private unnamed_addr constant [14 x i8] c"color.advice.\00", align 1
@.str.4 = private unnamed_addr constant [8 x i8] c"advice.\00", align 1
@.str.81 = private unnamed_addr constant [6 x i8] c"reset\00", align 1
@.str.82 = private unnamed_addr constant [5 x i8] c"hint\00", align 1

; Function Attrs: inlinehint nounwind uwtable
define internal i32 @const_error() #5 {
  ret i32 -1
}

; Function Attrs: nounwind uwtable
define internal i32 @parse_advise_color_slot(ptr noundef %0) #0 {
  %2 = alloca i32, align 4
  %3 = alloca ptr, align 8
  store ptr %0, ptr %3, align 8, !tbaa !4
  %4 = load ptr, ptr %3, align 8, !tbaa !4
  %5 = call i32 @strcasecmp(ptr noundef %4, ptr noundef @.str.81) #11
  %6 = icmp ne i32 %5, 0
  br i1 %6, label %8, label %7

7:                                                ; preds = %1
  store i32 0, ptr %2, align 4
  br label %14

8:                                                ; preds = %1
  %9 = load ptr, ptr %3, align 8, !tbaa !4
  %10 = call i32 @strcasecmp(ptr noundef %9, ptr noundef @.str.82) #11
  %11 = icmp ne i32 %10, 0
  br i1 %11, label %13, label %12

12:                                               ; preds = %8
  store i32 1, ptr %2, align 4
  br label %14

13:                                               ; preds = %8
  store i32 -1, ptr %2, align 4
  br label %14

14:                                               ; preds = %13, %12, %7
  %15 = load i32, ptr %2, align 4
  ret i32 %15
}

; Function Attrs: inlinehint nounwind uwtable
define internal zeroext i1 @skip_prefix(ptr noundef %0, ptr noundef %1, ptr noundef %2) #5 {
  %4 = alloca i1, align 1
  %5 = alloca ptr, align 8
  %6 = alloca ptr, align 8
  %7 = alloca ptr, align 8
  store ptr %0, ptr %5, align 8, !tbaa !4
  store ptr %1, ptr %6, align 8, !tbaa !4
  store ptr %2, ptr %7, align 8, !tbaa !26
  br label %8

8:                                                ; preds = %16, %3
  %9 = load ptr, ptr %6, align 8, !tbaa !4
  %10 = load i8, ptr %9, align 1, !tbaa !16
  %11 = icmp ne i8 %10, 0
  br i1 %11, label %15, label %12

12:                                               ; preds = %8
  %13 = load ptr, ptr %5, align 8, !tbaa !4
  %14 = load ptr, ptr %7, align 8, !tbaa !26
  store ptr %13, ptr %14, align 8, !tbaa !4
  store i1 true, ptr %4, align 1
  br label %27

15:                                               ; preds = %8
  br label %16

16:                                               ; preds = %15
  %17 = load ptr, ptr %5, align 8, !tbaa !4
  %18 = getelementptr inbounds nuw i8, ptr %17, i32 1
  store ptr %18, ptr %5, align 8, !tbaa !4
  %19 = load i8, ptr %17, align 1, !tbaa !16
  %20 = sext i8 %19 to i32
  %21 = load ptr, ptr %6, align 8, !tbaa !4
  %22 = getelementptr inbounds nuw i8, ptr %21, i32 1
  store ptr %22, ptr %6, align 8, !tbaa !4
  %23 = load i8, ptr %21, align 1, !tbaa !16
  %24 = sext i8 %23 to i32
  %25 = icmp eq i32 %20, %24
  br i1 %25, label %8, label %26, !llvm.loop !28

26:                                               ; preds = %16
  store i1 false, ptr %4, align 1
  br label %27

27:                                               ; preds = %26, %12
  %28 = load i1, ptr %4, align 1
  ret i1 %28
}

; Function Attrs: nounwind uwtable
define dso_local i32 @git_default_advice_config(ptr noundef %0, ptr noundef %1) #0 {
  %3 = alloca i32, align 4
  %4 = alloca ptr, align 8
  %5 = alloca ptr, align 8
  %6 = alloca ptr, align 8
  %7 = alloca ptr, align 8
  %8 = alloca i32, align 4
  %9 = alloca i32, align 4
  %10 = alloca i64, align 8
  store ptr %0, ptr %4, align 8, !tbaa !4
  store ptr %1, ptr %5, align 8, !tbaa !4
  call void @llvm.lifetime.start.p0(i64 8, ptr %6) #10
  call void @llvm.lifetime.start.p0(i64 8, ptr %7) #10
  %11 = load ptr, ptr %4, align 8, !tbaa !4
  %12 = call i32 @strcmp(ptr noundef %11, ptr noundef @.str.2) #11
  %13 = icmp ne i32 %12, 0
  br i1 %13, label %18, label %14

14:                                               ; preds = %2
  %15 = load ptr, ptr %4, align 8, !tbaa !4
  %16 = load ptr, ptr %5, align 8, !tbaa !4
  %17 = call i32 @git_config_colorbool(ptr noundef %15, ptr noundef %16)
  store i32 %17, ptr @advice_use_color, align 4, !tbaa !9
  store i32 0, ptr %3, align 4
  store i32 1, ptr %8, align 4
  br label %75

18:                                               ; preds = %2
  %19 = load ptr, ptr %4, align 8, !tbaa !4
  %20 = call zeroext i1 @skip_prefix(ptr noundef %19, ptr noundef @.str.3, ptr noundef %7)
  br i1 %20, label %21, label %42

21:                                               ; preds = %18
  call void @llvm.lifetime.start.p0(i64 4, ptr %9) #10
  %22 = load ptr, ptr %7, align 8, !tbaa !4
  %23 = call i32 @parse_advise_color_slot(ptr noundef %22)
  store i32 %23, ptr %9, align 4, !tbaa !9
  %24 = load i32, ptr %9, align 4, !tbaa !9
  %25 = icmp slt i32 %24, 0
  br i1 %25, label %26, label %27

26:                                               ; preds = %21
  store i32 0, ptr %3, align 4
  store i32 1, ptr %8, align 4
  br label %41

27:                                               ; preds = %21
  %28 = load ptr, ptr %5, align 8, !tbaa !4
  %29 = icmp ne ptr %28, null
  br i1 %29, label %34, label %30

30:                                               ; preds = %27
  %31 = load ptr, ptr %4, align 8, !tbaa !4
  %32 = call i32 @config_error_nonbool(ptr noundef %31)
  %33 = call i32 @const_error()
  store i32 %33, ptr %3, align 4
  store i32 1, ptr %8, align 4
  br label %41

34:                                               ; preds = %27
  %35 = load ptr, ptr %5, align 8, !tbaa !4
  %36 = load i32, ptr %9, align 4, !tbaa !9
  %37 = sext i32 %36 to i64
  %38 = getelementptr inbounds [2 x [75 x i8]], ptr @advice_colors, i64 0, i64 %37
  %39 = getelementptr inbounds [75 x i8], ptr %38, i64 0, i64 0
  %40 = call i32 @color_parse(ptr noundef %35, ptr noundef %39)
  store i32 %40, ptr %3, align 4
  store i32 1, ptr %8, align 4
  br label %41

41:                                               ; preds = %34, %30, %26
  call void @llvm.lifetime.end.p0(i64 4, ptr %9) #10
  br label %75

42:                                               ; preds = %18
  %43 = load ptr, ptr %4, align 8, !tbaa !4
  %44 = call zeroext i1 @skip_prefix(ptr noundef %43, ptr noundef @.str.4, ptr noundef %6)
  br i1 %44, label %46, label %45

45:                                               ; preds = %42
  store i32 0, ptr %3, align 4
  store i32 1, ptr %8, align 4
  br label %75

46:                                               ; preds = %42
  call void @llvm.lifetime.start.p0(i64 8, ptr %10) #10
  store i64 0, ptr %10, align 8, !tbaa !24
  br label %47

47:                                               ; preds = %69, %46
  %48 = load i64, ptr %10, align 8, !tbaa !24
  %49 = icmp ult i64 %48, 46
  br i1 %49, label %51, label %50

50:                                               ; preds = %47
  store i32 2, ptr %8, align 4
  br label %72

51:                                               ; preds = %47
  %52 = load ptr, ptr %6, align 8, !tbaa !4
  %53 = load i64, ptr %10, align 8, !tbaa !24
  %54 = getelementptr inbounds nuw [46 x %struct.anon], ptr @advice_setting, i64 0, i64 %53
  %55 = getelementptr inbounds nuw %struct.anon, ptr %54, i32 0, i32 0
  %56 = load ptr, ptr %55, align 16, !tbaa !23
  %57 = call i32 @strcasecmp(ptr noundef %52, ptr noundef %56) #11
  %58 = icmp ne i32 %57, 0
  br i1 %58, label %59, label %60

59:                                               ; preds = %51
  br label %69

60:                                               ; preds = %51
  %61 = load ptr, ptr %4, align 8, !tbaa !4
  %62 = load ptr, ptr %5, align 8, !tbaa !4
  %63 = call i32 @git_config_bool(ptr noundef %61, ptr noundef %62)
  %64 = icmp ne i32 %63, 0
  %65 = select i1 %64, i32 2, i32 1
  %66 = load i64, ptr %10, align 8, !tbaa !24
  %67 = getelementptr inbounds nuw [46 x %struct.anon], ptr @advice_setting, i64 0, i64 %66
  %68 = getelementptr inbounds nuw %struct.anon, ptr %67, i32 0, i32 1
  store i32 %65, ptr %68, align 8, !tbaa !21
  store i32 0, ptr %3, align 4
  store i32 1, ptr %8, align 4
  br label %72

69:                                               ; preds = %59
  %70 = load i64, ptr %10, align 8, !tbaa !24
  %71 = add i64 %70, 1
  store i64 %71, ptr %10, align 8, !tbaa !24
  br label %47, !llvm.loop !25

72:                                               ; preds = %60, %50
  call void @llvm.lifetime.end.p0(i64 8, ptr %10) #10
  %73 = load i32, ptr %8, align 4
  switch i32 %73, label %75 [
    i32 2, label %74
  ]

74:                                               ; preds = %72
  store i32 0, ptr %3, align 4
  store i32 1, ptr %8, align 4
  br label %75

75:                                               ; preds = %74, %72, %45, %41, %14
  call void @llvm.lifetime.end.p0(i64 8, ptr %7) #10
  call void @llvm.lifetime.end.p0(i64 8, ptr %6) #10
  %76 = load i32, ptr %3, align 4
  ret i32 %76
}