; Function Attrs: nounwind uwtable
define dso_local i32 @git_default_advice_config(ptr noundef %0, ptr noundef %1) local_unnamed_addr #0 {
  %3 = tail call i32 @strcmp(ptr noundef nonnull dereferenceable(1) %0, ptr noundef nonnull dereferenceable(13) @.str.2) #13
  %.not = icmp eq i32 %3, 0
  br i1 %.not, label %4, label %.preheader.preheader

.preheader.preheader:                             ; preds = %2
  %scevgep = getelementptr i8, ptr %0, i64 13
  br label %.preheader

4:                                                ; preds = %2
  %5 = tail call i32 @git_config_colorbool(ptr noundef nonnull %0, ptr noundef %1) #12
  store i32 %5, ptr @advice_use_color, align 4, !tbaa !14
  br label %.critedge

.preheader:                                       ; preds = %.preheader.preheader, %6
  %.07.i = phi ptr [ %8, %6 ], [ %0, %.preheader.preheader ]
  %.06.i.idx = phi i64 [ %.06.i.add, %6 ], [ 0, %.preheader.preheader ]
  %exitcond = icmp eq i64 %.06.i.idx, 13
  br i1 %exitcond, label %11, label %6

6:                                                ; preds = %.preheader
  %.06.i.ptr = getelementptr inbounds nuw i8, ptr @.str.3, i64 %.06.i.idx
  %7 = load i8, ptr %.06.i.ptr, align 1, !tbaa !11
  %8 = getelementptr inbounds nuw i8, ptr %.07.i, i64 1
  %9 = load i8, ptr %.07.i, align 1, !tbaa !11
  %.06.i.add = add nuw nsw i64 %.06.i.idx, 1
  %10 = icmp eq i8 %9, %7
  br i1 %10, label %.preheader, label %skip_prefix.exit.preheader, !llvm.loop !21

skip_prefix.exit.preheader:                       ; preds = %6
  %scevgep45 = getelementptr i8, ptr %0, i64 7
  br label %skip_prefix.exit

11:                                               ; preds = %.preheader
  %12 = tail call i32 @strcasecmp(ptr noundef nonnull readonly %scevgep, ptr noundef nonnull @.str.81) #13
  %.not.i24 = icmp eq i32 %12, 0
  br i1 %.not.i24, label %select.unfold, label %13

13:                                               ; preds = %11
  %14 = tail call i32 @strcasecmp(ptr noundef nonnull readonly %scevgep, ptr noundef nonnull @.str.82) #13
  %.not2.i = icmp eq i32 %14, 0
  br i1 %.not2.i, label %select.unfold, label %.critedge

select.unfold:                                    ; preds = %13, %11
  %.0.i.ph = phi i64 [ 0, %11 ], [ 1, %13 ]
  %.not23 = icmp eq ptr %1, null
  br i1 %.not23, label %15, label %17

15:                                               ; preds = %select.unfold
  %16 = tail call i32 @config_error_nonbool(ptr noundef nonnull %0) #12
  br label %.critedge

17:                                               ; preds = %select.unfold
  %18 = getelementptr inbounds nuw [2 x [75 x i8]], ptr @advice_colors, i64 0, i64 %.0.i.ph
  %19 = tail call i32 @color_parse(ptr noundef nonnull %1, ptr noundef nonnull %18) #12
  br label %.critedge

skip_prefix.exit:                                 ; preds = %skip_prefix.exit.preheader, %20
  %.07.i25 = phi ptr [ %22, %20 ], [ %0, %skip_prefix.exit.preheader ]
  %.06.i26.idx = phi i64 [ %.06.i26.add, %20 ], [ 0, %skip_prefix.exit.preheader ]
  %exitcond46 = icmp eq i64 %.06.i26.idx, 7
  br i1 %exitcond46, label %skip_prefix.exit28.preheader, label %20

20:                                               ; preds = %skip_prefix.exit
  %.06.i26.ptr = getelementptr inbounds nuw i8, ptr @.str.4, i64 %.06.i26.idx
  %21 = load i8, ptr %.06.i26.ptr, align 1, !tbaa !11
  %22 = getelementptr inbounds nuw i8, ptr %.07.i25, i64 1
  %23 = load i8, ptr %.07.i25, align 1, !tbaa !11
  %.06.i26.add = add nuw nsw i64 %.06.i26.idx, 1
  %24 = icmp eq i8 %23, %21
  br i1 %24, label %skip_prefix.exit, label %.critedge, !llvm.loop !21

skip_prefix.exit28:                               ; preds = %skip_prefix.exit28.preheader
  %25 = add nuw nsw i64 %.040, 1
  %exitcond47 = icmp eq i64 %25, 46
  br i1 %exitcond47, label %.critedge, label %skip_prefix.exit28.preheader, !llvm.loop !22

skip_prefix.exit28.preheader:                     ; preds = %skip_prefix.exit, %skip_prefix.exit28
  %.040 = phi i64 [ %25, %skip_prefix.exit28 ], [ 0, %skip_prefix.exit ]
  %26 = getelementptr inbounds nuw [46 x %struct.anon], ptr @advice_setting, i64 0, i64 %.040
  %27 = load ptr, ptr %26, align 16, !tbaa !20
  %28 = tail call i32 @strcasecmp(ptr noundef nonnull %scevgep45, ptr noundef %27) #13
  %.not21 = icmp eq i32 %28, 0
  br i1 %.not21, label %29, label %skip_prefix.exit28

29:                                               ; preds = %skip_prefix.exit28.preheader
  %30 = tail call i32 @git_config_bool(ptr noundef nonnull %0, ptr noundef %1) #12
  %.not22 = icmp eq i32 %30, 0
  %31 = select i1 %.not22, i32 1, i32 2
  %32 = getelementptr inbounds nuw i8, ptr %26, i64 8
  store i32 %31, ptr %32, align 8, !tbaa !18
  br label %.critedge

.critedge:                                        ; preds = %20, %skip_prefix.exit28, %13, %29, %15, %17, %4
  %.017 = phi i32 [ 0, %4 ], [ %19, %17 ], [ -1, %15 ], [ 0, %29 ], [ 0, %13 ], [ 0, %skip_prefix.exit28 ], [ 0, %20 ]
  ret i32 %.017
}